#include <math.h>
#include <stdio.h>
#include <stdlib.h>
#include <string.h>

int main()
{
    int n,a,b,c,d;
    scanf("%d",&n);
    if(n>=5)
    {
       for(a=3;a<=n-2;a+=2)
       {
          c=2;
          while(a%c!=0)
          {
             c=c+1;
          }
          if(c>=a)
          {
             d=2;
             b=a+2;
             while(b%d!=0)
             {
                d=d+1;
             }
             if(d>=b)
                printf("%d %d\n",a,b);
          } 
       }    
    }
    else
     printf("empty"); 
}
